; Function Attrs: mustprogress nofree norecurse nosync nounwind memory(argmem: readwrite) uwtable
define dso_local void @_ZN4llvm4SHA13padEv(ptr noundef nonnull align 4 captures(none) dereferenceable(92) %0) local_unnamed_addr #4 align 2 {
  %2 = getelementptr inbounds nuw i8, ptr %0, i64 88
  %3 = load i8, ptr %2, align 4
  %4 = xor i8 %3, 3
  %5 = zext i8 %4 to i64
  %6 = getelementptr inbounds nuw [64 x i8], ptr %0, i64 0, i64 %5
  store i8 -128, ptr %6, align 1
  %7 = load i8, ptr %2, align 4
  %8 = add i8 %7, 1
  store i8 %8, ptr %2, align 4
  switch i8 %7, label %.lr.ph.preheader [
    i8 63, label %_ZN4llvm4SHA112addUncountedEh.exit.thread
    i8 55, label %_ZN4llvm4SHA112addUncountedEh.exit2
  ]

_ZN4llvm4SHA112addUncountedEh.exit.thread:        ; preds = %1
  tail call void @_ZN4llvm4SHA19hashBlockEv(ptr noundef nonnull align 4 dereferenceable(92) %0)
  store i8 0, ptr %2, align 4
  br label %.lr.ph.preheader

.lr.ph.preheader:                                 ; preds = %1, %_ZN4llvm4SHA112addUncountedEh.exit.thread
  %.ph = phi i8 [ %8, %1 ], [ 0, %_ZN4llvm4SHA112addUncountedEh.exit.thread ]
  br label %.lr.ph

.lr.ph:                                           ; preds = %.lr.ph.preheader, %_ZN4llvm4SHA112addUncountedEh.exit1
  %9 = phi i8 [ %17, %_ZN4llvm4SHA112addUncountedEh.exit1 ], [ %.ph, %.lr.ph.preheader ]
  %10 = xor i8 %9, 3
  %11 = zext i8 %10 to i64
  %12 = getelementptr inbounds nuw [64 x i8], ptr %0, i64 0, i64 %11
  store i8 0, ptr %12, align 1
  %13 = load i8, ptr %2, align 4
  %14 = add i8 %13, 1
  store i8 %14, ptr %2, align 4
  %15 = icmp eq i8 %14, 64
  br i1 %15, label %16, label %_ZN4llvm4SHA112addUncountedEh.exit1

16:                                               ; preds = %.lr.ph
  tail call void @_ZN4llvm4SHA19hashBlockEv(ptr noundef nonnull align 4 dereferenceable(92) %0)
  store i8 0, ptr %2, align 4
  br label %_ZN4llvm4SHA112addUncountedEh.exit1

_ZN4llvm4SHA112addUncountedEh.exit1:              ; preds = %.lr.ph, %16
  %17 = phi i8 [ %14, %.lr.ph ], [ 0, %16 ]
  %.not = icmp eq i8 %17, 56
  br i1 %.not, label %_ZN4llvm4SHA112addUncountedEh.exit2, label %.lr.ph, !llvm.loop !8

_ZN4llvm4SHA112addUncountedEh.exit2:              ; preds = %_ZN4llvm4SHA112addUncountedEh.exit1, %1
  %18 = getelementptr inbounds nuw i8, ptr %0, i64 59
  store i8 0, ptr %18, align 1
  store i8 57, ptr %2, align 4
  %19 = getelementptr inbounds nuw i8, ptr %0, i64 58
  store i8 0, ptr %19, align 2
  store i8 58, ptr %2, align 4
  %20 = getelementptr inbounds nuw i8, ptr %0, i64 57
  store i8 0, ptr %20, align 1
  store i8 59, ptr %2, align 4
  %21 = getelementptr inbounds nuw i8, ptr %0, i64 84
  %22 = load i32, ptr %21, align 4
  %23 = lshr i32 %22, 29
  %24 = trunc nuw nsw i32 %23 to i8
  %25 = getelementptr inbounds nuw i8, ptr %0, i64 56
  store i8 %24, ptr %25, align 4
  %26 = load i8, ptr %2, align 4
  %27 = add i8 %26, 1
  store i8 %27, ptr %2, align 4
  %28 = icmp eq i8 %27, 64
  br i1 %28, label %29, label %_ZN4llvm4SHA112addUncountedEh.exit5

29:                                               ; preds = %_ZN4llvm4SHA112addUncountedEh.exit2
  tail call void @_ZN4llvm4SHA19hashBlockEv(ptr noundef nonnull align 4 dereferenceable(92) %0)
  store i8 0, ptr %2, align 4
  br label %_ZN4llvm4SHA112addUncountedEh.exit5

_ZN4llvm4SHA112addUncountedEh.exit5:              ; preds = %_ZN4llvm4SHA112addUncountedEh.exit2, %29
  %30 = phi i8 [ %27, %_ZN4llvm4SHA112addUncountedEh.exit2 ], [ 0, %29 ]
  %31 = load i32, ptr %21, align 4
  %32 = lshr i32 %31, 21
  %33 = trunc i32 %32 to i8
  %34 = xor i8 %30, 3
  %35 = zext i8 %34 to i64
  %36 = getelementptr inbounds nuw [64 x i8], ptr %0, i64 0, i64 %35
  store i8 %33, ptr %36, align 1
  %37 = load i8, ptr %2, align 4
  %38 = add i8 %37, 1
  store i8 %38, ptr %2, align 4
  %39 = icmp eq i8 %38, 64
  br i1 %39, label %40, label %_ZN4llvm4SHA112addUncountedEh.exit6

40:                                               ; preds = %_ZN4llvm4SHA112addUncountedEh.exit5
  tail call void @_ZN4llvm4SHA19hashBlockEv(ptr noundef nonnull align 4 dereferenceable(92) %0)
  store i8 0, ptr %2, align 4
  br label %_ZN4llvm4SHA112addUncountedEh.exit6

_ZN4llvm4SHA112addUncountedEh.exit6:              ; preds = %_ZN4llvm4SHA112addUncountedEh.exit5, %40
  %41 = phi i8 [ %38, %_ZN4llvm4SHA112addUncountedEh.exit5 ], [ 0, %40 ]
  %42 = load i32, ptr %21, align 4
  %43 = lshr i32 %42, 13
  %44 = trunc i32 %43 to i8
  %45 = xor i8 %41, 3
  %46 = zext i8 %45 to i64
  %47 = getelementptr inbounds nuw [64 x i8], ptr %0, i64 0, i64 %46
  store i8 %44, ptr %47, align 1
  %48 = load i8, ptr %2, align 4
  %49 = add i8 %48, 1
  store i8 %49, ptr %2, align 4
  %50 = icmp eq i8 %49, 64
  br i1 %50, label %51, label %_ZN4llvm4SHA112addUncountedEh.exit7

51:                                               ; preds = %_ZN4llvm4SHA112addUncountedEh.exit6
  tail call void @_ZN4llvm4SHA19hashBlockEv(ptr noundef nonnull align 4 dereferenceable(92) %0)
  store i8 0, ptr %2, align 4
  br label %_ZN4llvm4SHA112addUncountedEh.exit7

_ZN4llvm4SHA112addUncountedEh.exit7:              ; preds = %_ZN4llvm4SHA112addUncountedEh.exit6, %51
  %52 = phi i8 [ %49, %_ZN4llvm4SHA112addUncountedEh.exit6 ], [ 0, %51 ]
  %53 = load i32, ptr %21, align 4
  %54 = lshr i32 %53, 5
  %55 = trunc i32 %54 to i8
  %56 = xor i8 %52, 3
  %57 = zext i8 %56 to i64
  %58 = getelementptr inbounds nuw [64 x i8], ptr %0, i64 0, i64 %57
  store i8 %55, ptr %58, align 1
  %59 = load i8, ptr %2, align 4
  %60 = add i8 %59, 1
  store i8 %60, ptr %2, align 4
  %61 = icmp eq i8 %60, 64
  br i1 %61, label %62, label %_ZN4llvm4SHA112addUncountedEh.exit8

62:                                               ; preds = %_ZN4llvm4SHA112addUncountedEh.exit7
  tail call void @_ZN4llvm4SHA19hashBlockEv(ptr noundef nonnull align 4 dereferenceable(92) %0)
  store i8 0, ptr %2, align 4
  br label %_ZN4llvm4SHA112addUncountedEh.exit8

_ZN4llvm4SHA112addUncountedEh.exit8:              ; preds = %_ZN4llvm4SHA112addUncountedEh.exit7, %62
  %63 = phi i8 [ %60, %_ZN4llvm4SHA112addUncountedEh.exit7 ], [ 0, %62 ]
  %64 = load i32, ptr %21, align 4
  %.tr = trunc i32 %64 to i8
  %65 = shl i8 %.tr, 3
  %66 = xor i8 %63, 3
  %67 = zext i8 %66 to i64
  %68 = getelementptr inbounds nuw [64 x i8], ptr %0, i64 0, i64 %67
  store i8 %65, ptr %68, align 1
  %69 = load i8, ptr %2, align 4
  %70 = add i8 %69, 1
  store i8 %70, ptr %2, align 4
  %71 = icmp eq i8 %70, 64
  br i1 %71, label %72, label %_ZN4llvm4SHA112addUncountedEh.exit9

72:                                               ; preds = %_ZN4llvm4SHA112addUncountedEh.exit8
  tail call void @_ZN4llvm4SHA19hashBlockEv(ptr noundef nonnull align 4 dereferenceable(92) %0)
  store i8 0, ptr %2, align 4
  br label %_ZN4llvm4SHA112addUncountedEh.exit9

_ZN4llvm4SHA112addUncountedEh.exit9:              ; preds = %_ZN4llvm4SHA112addUncountedEh.exit8, %72
  ret void
}